; Function Attrs: nounwind sspstrong uwtable
define internal fastcc void @do_atomic_op_i32(ptr noundef %0, ptr noundef %1, ptr noundef %2, i64 noundef %3, i32 noundef %4, ptr noundef readonly captures(none) %5) unnamed_addr #0 {
  %7 = and i32 %4, 224
  %trunc.i.i = trunc nuw i32 %7 to i8
  switch i8 %trunc.i.i, label %10 [
    i8 0, label %memop_alignment_bits.exit.i
    i8 -32, label %8
  ]

8:                                                ; preds = %6
  %9 = and i32 %4, 7
  br label %memop_alignment_bits.exit.i

10:                                               ; preds = %6
  %11 = lshr exact i32 %7, 5
  br label %memop_alignment_bits.exit.i

memop_alignment_bits.exit.i:                      ; preds = %10, %8, %6
  %.0.i.i = phi i32 [ %9, %8 ], [ %11, %10 ], [ 0, %6 ]
  %12 = load i8, ptr @tcg_use_softmmu, align 1, !range !4, !noundef !5
  %13 = trunc nuw i8 %12 to i1
  br i1 %13, label %14, label %check_max_alignment.exit.i

14:                                               ; preds = %memop_alignment_bits.exit.i
  %15 = add nuw nsw i32 %.0.i.i, 5
  %16 = tail call align 8 ptr @llvm.threadlocal.address.p0(ptr align 8 @tcg_ctx)
  %17 = load ptr, ptr %16, align 8
  %18 = getelementptr inbounds nuw i8, ptr %17, i64 68
  %19 = load i8, ptr %18, align 4
  %20 = zext i8 %19 to i32
  %21 = icmp samesign ule i32 %15, %20
  tail call void @llvm.assume(i1 %21)
  br label %check_max_alignment.exit.i

check_max_alignment.exit.i:                       ; preds = %14, %memop_alignment_bits.exit.i
  %22 = and i32 %4, 7
  %23 = icmp eq i32 %.0.i.i, %22
  %24 = or i32 %4, 224
  %spec.select.i = select i1 %23, i32 %24, i32 %4
  %25 = and i32 %spec.select.i, 7
  switch i32 %25, label %30 [
    i32 0, label %26
    i32 1, label %tcg_canonicalize_memop.exit
    i32 2, label %28
  ]

26:                                               ; preds = %check_max_alignment.exit.i
  %27 = and i32 %spec.select.i, -17
  br label %tcg_canonicalize_memop.exit

28:                                               ; preds = %check_max_alignment.exit.i
  %29 = and i32 %spec.select.i, -9
  br label %tcg_canonicalize_memop.exit

30:                                               ; preds = %check_max_alignment.exit.i
  tail call void @g_assertion_message_expr(ptr noundef null, ptr noundef nonnull @.str, i32 noundef 76, ptr noundef nonnull @__func__.tcg_canonicalize_memop, ptr noundef null) #7
  unreachable

tcg_canonicalize_memop.exit:                      ; preds = %check_max_alignment.exit.i, %26, %28
  %.1.i = phi i32 [ %spec.select.i, %check_max_alignment.exit.i ], [ %27, %26 ], [ %29, %28 ]
  %31 = tail call align 8 ptr @llvm.threadlocal.address.p0(ptr align 8 @tcg_ctx)
  %32 = load ptr, ptr %31, align 8
  %33 = getelementptr inbounds nuw i8, ptr %32, i64 112
  %34 = load ptr, ptr %33, align 8
  %35 = getelementptr inbounds nuw i8, ptr %34, i64 20
  %36 = load i32, ptr %35, align 4
  %37 = and i32 %36, 32768
  %.not.i = icmp eq i32 %37, 0
  %38 = and i32 %.1.i, -1793
  %39 = or disjoint i32 %38, 1280
  %.3.i = select i1 %.not.i, i32 %39, i32 %.1.i
  %40 = and i32 %.3.i, 23
  %41 = zext nneg i32 %40 to i64
  %42 = getelementptr inbounds nuw ptr, ptr %5, i64 %41
  %43 = load ptr, ptr %42, align 8, !nonnull !5, !noundef !5
  %44 = trunc i64 %3 to i32
  %45 = shl i32 %.3.i, 4
  %46 = and i32 %45, -144
  %47 = or i32 %46, %44
  %48 = getelementptr inbounds nuw i8, ptr %32, i64 60
  %49 = load i32, ptr %48, align 4
  %50 = icmp eq i32 %49, 0
  br i1 %50, label %51, label %58

51:                                               ; preds = %tcg_canonicalize_memop.exit
  %52 = tail call ptr @tcg_temp_ebb_new_i64() #6
  %53 = load ptr, ptr %31, align 8
  %54 = ptrtoint ptr %1 to i64
  %55 = ptrtoint ptr %53 to i64
  %56 = sub i64 %54, %55
  %57 = inttoptr i64 %56 to ptr
  tail call void @tcg_gen_extu_i32_i64(ptr noundef %52, ptr noundef %57) #6
  br label %maybe_extend_addr64.exit

58:                                               ; preds = %tcg_canonicalize_memop.exit
  %59 = ptrtoint ptr %1 to i64
  %60 = ptrtoint ptr %32 to i64
  %61 = sub i64 %59, %60
  %62 = inttoptr i64 %61 to ptr
  br label %maybe_extend_addr64.exit

maybe_extend_addr64.exit:                         ; preds = %51, %58
  %.0.i = phi ptr [ %52, %51 ], [ %62, %58 ]
  %63 = load ptr, ptr @tcg_env, align 8
  %64 = tail call ptr @tcg_constant_i32(i32 noundef %47) #6
  tail call void %43(ptr noundef %0, ptr noundef %63, ptr noundef %.0.i, ptr noundef %2, ptr noundef %64) #6
  %65 = load ptr, ptr %31, align 8
  %66 = getelementptr inbounds nuw i8, ptr %65, i64 60
  %67 = load i32, ptr %66, align 4
  %68 = icmp eq i32 %67, 0
  br i1 %68, label %69, label %maybe_free_addr64.exit

69:                                               ; preds = %maybe_extend_addr64.exit
  tail call void @tcg_temp_free_i64(ptr noundef %.0.i) #6
  br label %maybe_free_addr64.exit

maybe_free_addr64.exit:                           ; preds = %maybe_extend_addr64.exit, %69
  %70 = and i32 %.3.i, 8
  %.not = icmp eq i32 %70, 0
  br i1 %.not, label %72, label %71

71:                                               ; preds = %maybe_free_addr64.exit
  tail call void @tcg_gen_ext_i32(ptr noundef %0, ptr noundef %0, i32 noundef %.3.i)
  br label %72

72:                                               ; preds = %71, %maybe_free_addr64.exit
  ret void
}